; Function Attrs: mustprogress uwtable
define dso_local void @_ZN4absl26RemoveExtraAsciiWhitespaceEPNSt7__cxx1112basic_stringIcSt11char_traitsIcESaIcEEE(ptr noundef captures(none) %0) local_unnamed_addr #2 personality ptr @__gxx_personality_v0 {
  %2 = load ptr, ptr %0, align 8, !tbaa !12
  %3 = getelementptr inbounds nuw i8, ptr %0, i64 8
  %4 = load i64, ptr %3, align 8, !tbaa !18
  %5 = tail call { i64, ptr } @_ZN4absl20StripAsciiWhitespaceESt17basic_string_viewIcSt11char_traitsIcEE(i64 %4, ptr %2)
  %6 = extractvalue { i64, ptr } %5, 0
  %7 = icmp eq i64 %6, 0
  br i1 %7, label %8, label %.lr.ph.preheader

8:                                                ; preds = %1
  store i64 0, ptr %3, align 8, !tbaa !18
  %9 = load ptr, ptr %0, align 8, !tbaa !12
  store i8 0, ptr %9, align 1, !tbaa !4
  br label %29

.lr.ph.preheader:                                 ; preds = %1
  %10 = extractvalue { i64, ptr } %5, 1
  %11 = getelementptr inbounds nuw i8, ptr %10, i64 %6
  %12 = load ptr, ptr %0, align 8, !tbaa !12
  br label %.lr.ph

.lr.ph:                                           ; preds = %.lr.ph.preheader, %.lr.ph
  %.024 = phi i1 [ %18, %.lr.ph ], [ false, %.lr.ph.preheader ]
  %.01623 = phi ptr [ %19, %.lr.ph ], [ %12, %.lr.ph.preheader ]
  %.01822 = phi ptr [ %20, %.lr.ph ], [ %10, %.lr.ph.preheader ]
  %13 = load i8, ptr %.01822, align 1, !tbaa !4
  %14 = zext i8 %13 to i64
  %15 = getelementptr inbounds nuw [256 x i8], ptr @_ZN4absl14ascii_internal13kPropertyBitsE, i64 0, i64 %14
  %16 = load i8, ptr %15, align 1, !tbaa !4
  %17 = and i8 %16, 8
  %18 = icmp ne i8 %17, 0
  %narrow = select i1 %.024, i1 %18, i1 false
  %.117.idx = sext i1 %narrow to i64
  %.117 = getelementptr inbounds i8, ptr %.01623, i64 %.117.idx
  store i8 %13, ptr %.117, align 1, !tbaa !4
  %19 = getelementptr inbounds nuw i8, ptr %.117, i64 1
  %20 = getelementptr inbounds nuw i8, ptr %.01822, i64 1
  %21 = icmp ult ptr %20, %11
  br i1 %21, label %.lr.ph, label %._crit_edge, !llvm.loop !19

._crit_edge:                                      ; preds = %.lr.ph
  %.pre = load ptr, ptr %0, align 8, !tbaa !12
  %22 = ptrtoint ptr %19 to i64
  %23 = ptrtoint ptr %.pre to i64
  %24 = sub i64 %22, %23
  %25 = load i64, ptr %3, align 8, !tbaa !18
  %26 = icmp ugt i64 %24, %25
  br i1 %26, label %27, label %_ZNSt7__cxx1112basic_stringIcSt11char_traitsIcESaIcEE5eraseEmm.exit

27:                                               ; preds = %._crit_edge
  tail call void (ptr, ...) @_ZSt24__throw_out_of_range_fmtPKcz(ptr noundef nonnull @.str.3, ptr noundef nonnull @.str.2, i64 noundef %24, i64 noundef %25) #6
  unreachable

_ZNSt7__cxx1112basic_stringIcSt11char_traitsIcESaIcEE5eraseEmm.exit: ; preds = %._crit_edge
  store i64 %24, ptr %3, align 8, !tbaa !18
  %28 = getelementptr inbounds nuw i8, ptr %.pre, i64 %24
  store i8 0, ptr %28, align 1, !tbaa !4
  br label %29

29:                                               ; preds = %_ZNSt7__cxx1112basic_stringIcSt11char_traitsIcESaIcEE5eraseEmm.exit, %8
  ret void
}